target datalayout = "e-m:e-p270:32:32-p271:32:32-p272:64:64-i64:64-i128:128-f80:128-n8:16:32:64-S128"
target triple = "x86_64-pc-linux-gnu"

; Function Attrs: nounwind uwtable
define internal i32 @nsvg__isdigit(i8 noundef signext %0) #0 {
  %2 = alloca i8, align 1
  store i8 %0, ptr %2, align 1, !tbaa !12
  %3 = load i8, ptr %2, align 1, !tbaa !12
  %4 = sext i8 %3 to i32
  %5 = icmp sge i32 %4, 48
  br i1 %5, label %6, label %10

6:                                                ; preds = %1
  %7 = load i8, ptr %2, align 1, !tbaa !12
  %8 = sext i8 %7 to i32
  %9 = icmp sle i32 %8, 57
  br label %10

10:                                               ; preds = %6, %1
  %11 = phi i1 [ false, %1 ], [ %9, %6 ]
  %12 = zext i1 %11 to i32
  ret i32 %12
}

; Function Attrs: nounwind uwtable
define internal double @nsvg__atof(ptr noundef %0) #0 {
  %2 = alloca double, align 8
  %3 = alloca ptr, align 8
  %4 = alloca ptr, align 8
  %5 = alloca ptr, align 8
  %6 = alloca double, align 8
  %7 = alloca double, align 8
  %8 = alloca i64, align 8
  %9 = alloca i64, align 8
  %10 = alloca i8, align 1
  %11 = alloca i8, align 1
  %12 = alloca i32, align 4
  %13 = alloca i64, align 8
  store ptr %0, ptr %3, align 8, !tbaa !4
  call void @llvm.lifetime.start.p0(i64 8, ptr %4) #11
  %14 = load ptr, ptr %3, align 8, !tbaa !4
  store ptr %14, ptr %4, align 8, !tbaa !4
  call void @llvm.lifetime.start.p0(i64 8, ptr %5) #11
  store ptr null, ptr %5, align 8, !tbaa !4
  call void @llvm.lifetime.start.p0(i64 8, ptr %6) #11
  store double 0.000000e+00, ptr %6, align 8, !tbaa !260
  call void @llvm.lifetime.start.p0(i64 8, ptr %7) #11
  store double 1.000000e+00, ptr %7, align 8, !tbaa !260
  call void @llvm.lifetime.start.p0(i64 8, ptr %8) #11
  store i64 0, ptr %8, align 8, !tbaa !262
  call void @llvm.lifetime.start.p0(i64 8, ptr %9) #11
  store i64 0, ptr %9, align 8, !tbaa !262
  call void @llvm.lifetime.start.p0(i64 1, ptr %10) #11
  store i8 0, ptr %10, align 1, !tbaa !12
  call void @llvm.lifetime.start.p0(i64 1, ptr %11) #11
  store i8 0, ptr %11, align 1, !tbaa !12
  %15 = load ptr, ptr %4, align 8, !tbaa !4
  %16 = load i8, ptr %15, align 1, !tbaa !12
  %17 = sext i8 %16 to i32
  %18 = icmp eq i32 %17, 43
  br i1 %18, label %19, label %22

19:                                               ; preds = %1
  %20 = load ptr, ptr %4, align 8, !tbaa !4
  %21 = getelementptr inbounds nuw i8, ptr %20, i32 1
  store ptr %21, ptr %4, align 8, !tbaa !4
  br label %31

22:                                               ; preds = %1
  %23 = load ptr, ptr %4, align 8, !tbaa !4
  %24 = load i8, ptr %23, align 1, !tbaa !12
  %25 = sext i8 %24 to i32
  %26 = icmp eq i32 %25, 45
  br i1 %26, label %27, label %30

27:                                               ; preds = %22
  store double -1.000000e+00, ptr %7, align 8, !tbaa !260
  %28 = load ptr, ptr %4, align 8, !tbaa !4
  %29 = getelementptr inbounds nuw i8, ptr %28, i32 1
  store ptr %29, ptr %4, align 8, !tbaa !4
  br label %30

30:                                               ; preds = %27, %22
  br label %31

31:                                               ; preds = %30, %19
  %32 = load ptr, ptr %4, align 8, !tbaa !4
  %33 = load i8, ptr %32, align 1, !tbaa !12
  %34 = call i32 @nsvg__isdigit(i8 noundef signext %33)
  %35 = icmp ne i32 %34, 0
  br i1 %35, label %36, label %47

36:                                               ; preds = %31
  %37 = load ptr, ptr %4, align 8, !tbaa !4
  %38 = call i64 @strtoll(ptr noundef %37, ptr noundef %5, i32 noundef 10) #11
  store i64 %38, ptr %8, align 8, !tbaa !262
  %39 = load ptr, ptr %4, align 8, !tbaa !4
  %40 = load ptr, ptr %5, align 8, !tbaa !4
  %41 = icmp ne ptr %39, %40
  br i1 %41, label %42, label %46

42:                                               ; preds = %36
  %43 = load i64, ptr %8, align 8, !tbaa !262
  %44 = sitofp i64 %43 to double
  store double %44, ptr %6, align 8, !tbaa !260
  store i8 1, ptr %10, align 1, !tbaa !12
  %45 = load ptr, ptr %5, align 8, !tbaa !4
  store ptr %45, ptr %4, align 8, !tbaa !4
  br label %46

46:                                               ; preds = %42, %36
  br label %47

47:                                               ; preds = %46, %31
  %48 = load ptr, ptr %4, align 8, !tbaa !4
  %49 = load i8, ptr %48, align 1, !tbaa !12
  %50 = sext i8 %49 to i32
  %51 = icmp eq i32 %50, 46
  br i1 %51, label %52, label %81

52:                                               ; preds = %47
  %53 = load ptr, ptr %4, align 8, !tbaa !4
  %54 = getelementptr inbounds nuw i8, ptr %53, i32 1
  store ptr %54, ptr %4, align 8, !tbaa !4
  %55 = load ptr, ptr %4, align 8, !tbaa !4
  %56 = load i8, ptr %55, align 1, !tbaa !12
  %57 = call i32 @nsvg__isdigit(i8 noundef signext %56)
  %58 = icmp ne i32 %57, 0
  br i1 %58, label %59, label %80

59:                                               ; preds = %52
  %60 = load ptr, ptr %4, align 8, !tbaa !4
  %61 = call i64 @strtoll(ptr noundef %60, ptr noundef %5, i32 noundef 10) #11
  store i64 %61, ptr %9, align 8, !tbaa !262
  %62 = load ptr, ptr %4, align 8, !tbaa !4
  %63 = load ptr, ptr %5, align 8, !tbaa !4
  %64 = icmp ne ptr %62, %63
  br i1 %64, label %65, label %79

65:                                               ; preds = %59
  %66 = load i64, ptr %9, align 8, !tbaa !262
  %67 = sitofp i64 %66 to double
  %68 = load ptr, ptr %5, align 8, !tbaa !4
  %69 = load ptr, ptr %4, align 8, !tbaa !4
  %70 = ptrtoint ptr %68 to i64
  %71 = ptrtoint ptr %69 to i64
  %72 = sub i64 %70, %71
  %73 = sitofp i64 %72 to double
  %74 = call double @pow(double noundef 1.000000e+01, double noundef %73) #11, !tbaa !10
  %75 = fdiv double %67, %74
  %76 = load double, ptr %6, align 8, !tbaa !260
  %77 = fadd double %76, %75
  store double %77, ptr %6, align 8, !tbaa !260
  store i8 1, ptr %11, align 1, !tbaa !12
  %78 = load ptr, ptr %5, align 8, !tbaa !4
  store ptr %78, ptr %4, align 8, !tbaa !4
  br label %79

79:                                               ; preds = %65, %59
  br label %80

80:                                               ; preds = %79, %52
  br label %81

81:                                               ; preds = %80, %47
  %82 = load i8, ptr %10, align 1, !tbaa !12
  %83 = icmp ne i8 %82, 0
  br i1 %83, label %88, label %84

84:                                               ; preds = %81
  %85 = load i8, ptr %11, align 1, !tbaa !12
  %86 = icmp ne i8 %85, 0
  br i1 %86, label %88, label %87

87:                                               ; preds = %84
  store double 0.000000e+00, ptr %2, align 8
  store i32 1, ptr %12, align 4
  br label %117

88:                                               ; preds = %84, %81
  %89 = load ptr, ptr %4, align 8, !tbaa !4
  %90 = load i8, ptr %89, align 1, !tbaa !12
  %91 = sext i8 %90 to i32
  %92 = icmp eq i32 %91, 101
  br i1 %92, label %98, label %93

93:                                               ; preds = %88
  %94 = load ptr, ptr %4, align 8, !tbaa !4
  %95 = load i8, ptr %94, align 1, !tbaa !12
  %96 = sext i8 %95 to i32
  %97 = icmp eq i32 %96, 69
  br i1 %97, label %98, label %113

98:                                               ; preds = %93, %88
  call void @llvm.lifetime.start.p0(i64 8, ptr %13) #11
  store i64 0, ptr %13, align 8, !tbaa !91
  %99 = load ptr, ptr %4, align 8, !tbaa !4
  %100 = getelementptr inbounds nuw i8, ptr %99, i32 1
  store ptr %100, ptr %4, align 8, !tbaa !4
  %101 = load ptr, ptr %4, align 8, !tbaa !4
  %102 = call i64 @strtol(ptr noundef %101, ptr noundef %5, i32 noundef 10) #11
  store i64 %102, ptr %13, align 8, !tbaa !91
  %103 = load ptr, ptr %4, align 8, !tbaa !4
  %104 = load ptr, ptr %5, align 8, !tbaa !4
  %105 = icmp ne ptr %103, %104
  br i1 %105, label %106, label %112

106:                                              ; preds = %98
  %107 = load i64, ptr %13, align 8, !tbaa !91
  %108 = sitofp i64 %107 to double
  %109 = call double @pow(double noundef 1.000000e+01, double noundef %108) #11, !tbaa !10
  %110 = load double, ptr %6, align 8, !tbaa !260
  %111 = fmul double %110, %109
  store double %111, ptr %6, align 8, !tbaa !260
  br label %112

112:                                              ; preds = %106, %98
  call void @llvm.lifetime.end.p0(i64 8, ptr %13) #11
  br label %113

113:                                              ; preds = %112, %93
  %114 = load double, ptr %6, align 8, !tbaa !260
  %115 = load double, ptr %7, align 8, !tbaa !260
  %116 = fmul double %114, %115
  store double %116, ptr %2, align 8
  store i32 1, ptr %12, align 4
  br label %117

117:                                              ; preds = %113, %87
  call void @llvm.lifetime.end.p0(i64 1, ptr %11) #11
  call void @llvm.lifetime.end.p0(i64 1, ptr %10) #11
  call void @llvm.lifetime.end.p0(i64 8, ptr %9) #11
  call void @llvm.lifetime.end.p0(i64 8, ptr %8) #11
  call void @llvm.lifetime.end.p0(i64 8, ptr %7) #11
  call void @llvm.lifetime.end.p0(i64 8, ptr %6) #11
  call void @llvm.lifetime.end.p0(i64 8, ptr %5) #11
  call void @llvm.lifetime.end.p0(i64 8, ptr %4) #11
  %118 = load double, ptr %2, align 8
  ret double %118
}