; Function Attrs: mustprogress nofree nounwind willreturn uwtable
define internal fastcc double @nsvg__atof(ptr noundef %0) unnamed_addr #20 {
  %2 = alloca ptr, align 8
  call void @llvm.lifetime.start.p0(i64 8, ptr nonnull %2) #31
  store ptr null, ptr %2, align 8, !tbaa !15
  %3 = load i8, ptr %0, align 1, !tbaa !4
  switch i8 %3, label %8 [
    i8 43, label %4
    i8 45, label %6
  ]

4:                                                ; preds = %1
  %5 = getelementptr inbounds nuw i8, ptr %0, i64 1
  br label %8

6:                                                ; preds = %1
  %7 = getelementptr inbounds nuw i8, ptr %0, i64 1
  br label %8

8:                                                ; preds = %1, %6, %4
  %.032 = phi ptr [ %5, %4 ], [ %7, %6 ], [ %0, %1 ]
  %.030 = phi double [ 1.000000e+00, %4 ], [ -1.000000e+00, %6 ], [ 1.000000e+00, %1 ]
  %9 = load i8, ptr %.032, align 1, !tbaa !4
  %10 = add i8 %9, -58
  %11 = icmp ult i8 %10, -10
  br i1 %11, label %15, label %thread-pre-split

thread-pre-split:                                 ; preds = %8
  %12 = call i64 @strtoll(ptr noundef nonnull %.032, ptr noundef nonnull %2, i32 noundef 10) #31
  %13 = load ptr, ptr %2, align 8, !tbaa !15
  %.not42 = icmp ne ptr %.032, %13
  %14 = sitofp i64 %12 to double
  %.031.ph = select i1 %.not42, double %14, double 0.000000e+00
  %.pr = load i8, ptr %13, align 1, !tbaa !4
  br label %15

15:                                               ; preds = %thread-pre-split, %8
  %16 = phi i8 [ %.pr, %thread-pre-split ], [ %9, %8 ]
  %.133 = phi ptr [ %13, %thread-pre-split ], [ %.032, %8 ]
  %.031 = phi double [ %.031.ph, %thread-pre-split ], [ 0.000000e+00, %8 ]
  %17 = phi i1 [ %.not42, %thread-pre-split ], [ false, %8 ]
  %18 = icmp eq i8 %16, 46
  br i1 %18, label %19, label %35

19:                                               ; preds = %15
  %20 = getelementptr inbounds nuw i8, ptr %.133, i64 1
  %21 = load i8, ptr %20, align 1, !tbaa !4
  %22 = add i8 %21, -58
  %23 = icmp ult i8 %22, -10
  br i1 %23, label %35, label %24

24:                                               ; preds = %19
  %25 = call i64 @strtoll(ptr noundef nonnull %20, ptr noundef nonnull %2, i32 noundef 10) #31
  %26 = load ptr, ptr %2, align 8, !tbaa !15
  %.not44 = icmp eq ptr %20, %26
  br i1 %.not44, label %35, label %.thread

.thread:                                          ; preds = %24
  %27 = sitofp i64 %25 to double
  %28 = ptrtoint ptr %26 to i64
  %29 = ptrtoint ptr %20 to i64
  %30 = sub i64 %28, %29
  %31 = sitofp i64 %30 to double
  %32 = tail call double @pow(double noundef 1.000000e+01, double noundef %31) #31, !tbaa !88
  %33 = fdiv double %27, %32
  %34 = fadd double %.031, %33
  br label %36

35:                                               ; preds = %19, %24, %15
  %.234 = phi ptr [ %20, %24 ], [ %20, %19 ], [ %.133, %15 ]
  br i1 %17, label %36, label %48

36:                                               ; preds = %.thread, %35
  %.150 = phi double [ %34, %.thread ], [ %.031, %35 ]
  %.23449 = phi ptr [ %26, %.thread ], [ %.234, %35 ]
  %37 = load i8, ptr %.23449, align 1, !tbaa !4
  switch i8 %37, label %46 [
    i8 101, label %38
    i8 69, label %38
  ]

38:                                               ; preds = %36, %36
  %39 = getelementptr inbounds nuw i8, ptr %.23449, i64 1
  %40 = call i64 @strtol(ptr noundef nonnull %39, ptr noundef nonnull %2, i32 noundef 10) #31
  %41 = load ptr, ptr %2, align 8, !tbaa !15
  %.not45 = icmp eq ptr %39, %41
  br i1 %.not45, label %46, label %42

42:                                               ; preds = %38
  %43 = sitofp i64 %40 to double
  %44 = tail call double @pow(double noundef 1.000000e+01, double noundef %43) #31, !tbaa !88
  %45 = fmul double %.150, %44
  br label %46

46:                                               ; preds = %38, %42, %36
  %.2 = phi double [ %.150, %36 ], [ %45, %42 ], [ %.150, %38 ]
  %47 = fmul double %.030, %.2
  br label %48

48:                                               ; preds = %35, %46
  %.035 = phi double [ %47, %46 ], [ 0.000000e+00, %35 ]
  call void @llvm.lifetime.end.p0(i64 8, ptr nonnull %2) #31
  ret double %.035
}